target datalayout = "e-m:e-p270:32:32-p271:32:32-p272:64:64-i64:64-i128:128-f80:128-n8:16:32:64-S128"
target triple = "x86_64-pc-linux-gnu"

%struct.vars = type { ptr, ptr, ptr, i32, i32, i32, i32, i32, i32, i32, ptr, i64, [10 x ptr], ptr, ptr, i16, ptr, ptr, ptr, ptr, i32, ptr, ptr, ptr, i32, i64 }
%struct.pg_locale_struct = type { i8, i8, i8, i8, i8, ptr, %union.anon }
%union.anon = type { %struct.anon }
%struct.anon = type { ptr, i8 }
%struct.cvec = type { i32, i32, ptr, i32, i32, ptr, i32 }
%struct.__locale_struct = type { [13 x ptr], ptr, ptr, ptr, [13 x ptr] }

@pg_regex_strategy = internal global i32 0, align 4
@pg_regex_locale = internal global ptr null, align 8

; Function Attrs: nounwind uwtable
define internal ptr @newcvec(i32 noundef %0, i32 noundef %1) #0 {
  %3 = alloca ptr, align 8
  %4 = alloca i32, align 4
  %5 = alloca i32, align 4
  %6 = alloca i64, align 8
  %7 = alloca i64, align 8
  %8 = alloca ptr, align 8
  %9 = alloca i32, align 4
  store i32 %0, ptr %4, align 4
  store i32 %1, ptr %5, align 4
  call void @llvm.lifetime.start.p0(i64 8, ptr %6) #12
  %10 = load i32, ptr %4, align 4
  %11 = sext i32 %10 to i64
  %12 = load i32, ptr %5, align 4
  %13 = sext i32 %12 to i64
  %14 = mul i64 %13, 2
  %15 = add i64 %11, %14
  store i64 %15, ptr %6, align 8
  call void @llvm.lifetime.start.p0(i64 8, ptr %7) #12
  %16 = load i64, ptr %6, align 8
  %17 = mul i64 %16, 4
  %18 = add i64 40, %17
  store i64 %18, ptr %7, align 8
  call void @llvm.lifetime.start.p0(i64 8, ptr %8) #12
  %19 = load i64, ptr %7, align 8
  %20 = call ptr @palloc_extended(i64 noundef %19, i32 noundef 2)
  store ptr %20, ptr %8, align 8
  %21 = load ptr, ptr %8, align 8
  %22 = icmp eq ptr %21, null
  br i1 %22, label %23, label %24

23:                                               ; preds = %2
  store ptr null, ptr %3, align 8
  store i32 1, ptr %9, align 4
  br label %45

24:                                               ; preds = %2
  %25 = load i32, ptr %4, align 4
  %26 = load ptr, ptr %8, align 8
  %27 = getelementptr inbounds nuw %struct.cvec, ptr %26, i32 0, i32 1
  store i32 %25, ptr %27, align 4
  %28 = load ptr, ptr %8, align 8
  %29 = getelementptr inbounds nuw i8, ptr %28, i64 40
  %30 = load ptr, ptr %8, align 8
  %31 = getelementptr inbounds nuw %struct.cvec, ptr %30, i32 0, i32 2
  store ptr %29, ptr %31, align 8
  %32 = load ptr, ptr %8, align 8
  %33 = getelementptr inbounds nuw %struct.cvec, ptr %32, i32 0, i32 2
  %34 = load ptr, ptr %33, align 8
  %35 = load i32, ptr %4, align 4
  %36 = sext i32 %35 to i64
  %37 = getelementptr inbounds i32, ptr %34, i64 %36
  %38 = load ptr, ptr %8, align 8
  %39 = getelementptr inbounds nuw %struct.cvec, ptr %38, i32 0, i32 5
  store ptr %37, ptr %39, align 8
  %40 = load i32, ptr %5, align 4
  %41 = load ptr, ptr %8, align 8
  %42 = getelementptr inbounds nuw %struct.cvec, ptr %41, i32 0, i32 4
  store i32 %40, ptr %42, align 4
  %43 = load ptr, ptr %8, align 8
  %44 = call ptr @clearcvec(ptr noundef %43)
  store ptr %44, ptr %3, align 8
  store i32 1, ptr %9, align 4
  br label %45

45:                                               ; preds = %24, %23
  call void @llvm.lifetime.end.p0(i64 8, ptr %8) #12
  call void @llvm.lifetime.end.p0(i64 8, ptr %7) #12
  call void @llvm.lifetime.end.p0(i64 8, ptr %6) #12
  %46 = load ptr, ptr %3, align 8
  ret ptr %46
}

; Function Attrs: nounwind uwtable
define internal void @freecvec(ptr noundef %0) #0 {
  %2 = alloca ptr, align 8
  store ptr %0, ptr %2, align 8
  %3 = load ptr, ptr %2, align 8
  call void @pfree(ptr noundef %3)
  ret void
}

; Function Attrs: nounwind uwtable
define internal ptr @clearcvec(ptr noundef %0) #0 {
  %2 = alloca ptr, align 8
  store ptr %0, ptr %2, align 8
  %3 = load ptr, ptr %2, align 8
  %4 = getelementptr inbounds nuw %struct.cvec, ptr %3, i32 0, i32 0
  store i32 0, ptr %4, align 8
  %5 = load ptr, ptr %2, align 8
  %6 = getelementptr inbounds nuw %struct.cvec, ptr %5, i32 0, i32 3
  store i32 0, ptr %6, align 8
  %7 = load ptr, ptr %2, align 8
  %8 = getelementptr inbounds nuw %struct.cvec, ptr %7, i32 0, i32 6
  store i32 -1, ptr %8, align 8
  %9 = load ptr, ptr %2, align 8
  ret ptr %9
}

; Function Attrs: nounwind uwtable
define internal void @addchr(ptr noundef %0, i32 noundef %1) #0 {
  %3 = alloca ptr, align 8
  %4 = alloca i32, align 4
  store ptr %0, ptr %3, align 8
  store i32 %1, ptr %4, align 4
  %5 = load i32, ptr %4, align 4
  %6 = load ptr, ptr %3, align 8
  %7 = getelementptr inbounds nuw %struct.cvec, ptr %6, i32 0, i32 2
  %8 = load ptr, ptr %7, align 8
  %9 = load ptr, ptr %3, align 8
  %10 = getelementptr inbounds nuw %struct.cvec, ptr %9, i32 0, i32 0
  %11 = load i32, ptr %10, align 8
  %12 = add i32 %11, 1
  store i32 %12, ptr %10, align 8
  %13 = sext i32 %11 to i64
  %14 = getelementptr inbounds i32, ptr %8, i64 %13
  store i32 %5, ptr %14, align 4
  ret void
}

; Function Attrs: nounwind uwtable
define internal ptr @getcvec(ptr noundef %0, i32 noundef %1, i32 noundef %2) #0 {
  %4 = alloca ptr, align 8
  %5 = alloca ptr, align 8
  %6 = alloca i32, align 4
  %7 = alloca i32, align 4
  store ptr %0, ptr %5, align 8
  store i32 %1, ptr %6, align 4
  store i32 %2, ptr %7, align 4
  %8 = load ptr, ptr %5, align 8
  %9 = getelementptr inbounds nuw %struct.vars, ptr %8, i32 0, i32 21
  %10 = load ptr, ptr %9, align 8
  %11 = icmp ne ptr %10, null
  br i1 %11, label %12, label %33

12:                                               ; preds = %3
  %13 = load i32, ptr %6, align 4
  %14 = load ptr, ptr %5, align 8
  %15 = getelementptr inbounds nuw %struct.vars, ptr %14, i32 0, i32 21
  %16 = load ptr, ptr %15, align 8
  %17 = getelementptr inbounds nuw %struct.cvec, ptr %16, i32 0, i32 1
  %18 = load i32, ptr %17, align 4
  %19 = icmp sle i32 %13, %18
  br i1 %19, label %20, label %33

20:                                               ; preds = %12
  %21 = load i32, ptr %7, align 4
  %22 = load ptr, ptr %5, align 8
  %23 = getelementptr inbounds nuw %struct.vars, ptr %22, i32 0, i32 21
  %24 = load ptr, ptr %23, align 8
  %25 = getelementptr inbounds nuw %struct.cvec, ptr %24, i32 0, i32 4
  %26 = load i32, ptr %25, align 4
  %27 = icmp sle i32 %21, %26
  br i1 %27, label %28, label %33

28:                                               ; preds = %20
  %29 = load ptr, ptr %5, align 8
  %30 = getelementptr inbounds nuw %struct.vars, ptr %29, i32 0, i32 21
  %31 = load ptr, ptr %30, align 8
  %32 = call ptr @clearcvec(ptr noundef %31)
  store ptr %32, ptr %4, align 8
  br label %72

33:                                               ; preds = %20, %12, %3
  %34 = load ptr, ptr %5, align 8
  %35 = getelementptr inbounds nuw %struct.vars, ptr %34, i32 0, i32 21
  %36 = load ptr, ptr %35, align 8
  %37 = icmp ne ptr %36, null
  br i1 %37, label %38, label %42

38:                                               ; preds = %33
  %39 = load ptr, ptr %5, align 8
  %40 = getelementptr inbounds nuw %struct.vars, ptr %39, i32 0, i32 21
  %41 = load ptr, ptr %40, align 8
  call void @freecvec(ptr noundef %41)
  br label %42

42:                                               ; preds = %38, %33
  %43 = load i32, ptr %6, align 4
  %44 = load i32, ptr %7, align 4
  %45 = call ptr @newcvec(i32 noundef %43, i32 noundef %44)
  %46 = load ptr, ptr %5, align 8
  %47 = getelementptr inbounds nuw %struct.vars, ptr %46, i32 0, i32 21
  store ptr %45, ptr %47, align 8
  %48 = load ptr, ptr %5, align 8
  %49 = getelementptr inbounds nuw %struct.vars, ptr %48, i32 0, i32 21
  %50 = load ptr, ptr %49, align 8
  %51 = icmp eq ptr %50, null
  br i1 %51, label %52, label %68

52:                                               ; preds = %42
  %53 = load ptr, ptr %5, align 8
  %54 = getelementptr inbounds nuw %struct.vars, ptr %53, i32 0, i32 6
  store i32 101, ptr %54, align 4
  %55 = load ptr, ptr %5, align 8
  %56 = getelementptr inbounds nuw %struct.vars, ptr %55, i32 0, i32 3
  %57 = load i32, ptr %56, align 8
  %58 = icmp ne i32 %57, 0
  br i1 %58, label %59, label %63

59:                                               ; preds = %52
  %60 = load ptr, ptr %5, align 8
  %61 = getelementptr inbounds nuw %struct.vars, ptr %60, i32 0, i32 3
  %62 = load i32, ptr %61, align 8
  br label %64

63:                                               ; preds = %52
  br label %64

64:                                               ; preds = %63, %59
  %65 = phi i32 [ %62, %59 ], [ 12, %63 ]
  %66 = load ptr, ptr %5, align 8
  %67 = getelementptr inbounds nuw %struct.vars, ptr %66, i32 0, i32 3
  store i32 %65, ptr %67, align 8
  br label %68

68:                                               ; preds = %64, %42
  %69 = load ptr, ptr %5, align 8
  %70 = getelementptr inbounds nuw %struct.vars, ptr %69, i32 0, i32 21
  %71 = load ptr, ptr %70, align 8
  store ptr %71, ptr %4, align 8
  br label %72

72:                                               ; preds = %68, %28
  %73 = load ptr, ptr %4, align 8
  ret ptr %73
}

; Function Attrs: nounwind uwtable
define internal i32 @pg_wc_toupper(i32 noundef %0) #0 {
  %2 = alloca i32, align 4
  %3 = alloca i32, align 4
  %4 = alloca i32, align 4
  %5 = alloca i32, align 4
  store i32 %0, ptr %3, align 4
  %6 = load i32, ptr @pg_regex_strategy, align 4
  switch i32 %6, label %48 [
    i32 0, label %7
    i32 1, label %17
    i32 2, label %20
    i32 3, label %26
    i32 4, label %45
  ]

7:                                                ; preds = %1
  %8 = load i32, ptr %3, align 4
  %9 = icmp ule i32 %8, 127
  br i1 %9, label %10, label %15

10:                                               ; preds = %7
  %11 = load i32, ptr %3, align 4
  %12 = trunc i32 %11 to i8
  %13 = call zeroext i8 @pg_ascii_toupper(i8 noundef zeroext %12)
  %14 = zext i8 %13 to i32
  store i32 %14, ptr %2, align 4
  br label %49

15:                                               ; preds = %7
  %16 = load i32, ptr %3, align 4
  store i32 %16, ptr %2, align 4
  br label %49

17:                                               ; preds = %1
  %18 = load i32, ptr %3, align 4
  %19 = call i32 @unicode_uppercase_simple(i32 noundef %18)
  store i32 %19, ptr %2, align 4
  br label %49

20:                                               ; preds = %1
  %21 = load i32, ptr %3, align 4
  %22 = load ptr, ptr @pg_regex_locale, align 8
  %23 = getelementptr inbounds nuw %struct.pg_locale_struct, ptr %22, i32 0, i32 6
  %24 = load ptr, ptr %23, align 8
  %25 = call i32 @towupper_l(i32 noundef %21, ptr noundef %24) #12
  store i32 %25, ptr %2, align 4
  br label %49

26:                                               ; preds = %1
  %27 = load i32, ptr %3, align 4
  %28 = icmp ule i32 %27, 255
  br i1 %28, label %29, label %43

29:                                               ; preds = %26
  call void @llvm.lifetime.start.p0(i64 4, ptr %4) #12
  %30 = load ptr, ptr @pg_regex_locale, align 8
  %31 = getelementptr inbounds nuw %struct.pg_locale_struct, ptr %30, i32 0, i32 6
  %32 = load ptr, ptr %31, align 8
  %33 = getelementptr inbounds nuw %struct.__locale_struct, ptr %32, i32 0, i32 3
  %34 = load ptr, ptr %33, align 8
  %35 = load i32, ptr %3, align 4
  %36 = trunc i32 %35 to i8
  %37 = zext i8 %36 to i32
  %38 = sext i32 %37 to i64
  %39 = getelementptr inbounds i32, ptr %34, i64 %38
  %40 = load i32, ptr %39, align 4
  store i32 %40, ptr %4, align 4
  %41 = load i32, ptr %4, align 4
  store i32 %41, ptr %5, align 4
  call void @llvm.lifetime.end.p0(i64 4, ptr %4) #12
  %42 = load i32, ptr %5, align 4
  store i32 %42, ptr %2, align 4
  br label %49

43:                                               ; preds = %26
  %44 = load i32, ptr %3, align 4
  store i32 %44, ptr %2, align 4
  br label %49

45:                                               ; preds = %1
  %46 = load i32, ptr %3, align 4
  %47 = call i32 @u_toupper_70(i32 noundef %46)
  store i32 %47, ptr %2, align 4
  br label %49

48:                                               ; preds = %1
  store i32 0, ptr %2, align 4
  br label %49

49:                                               ; preds = %48, %45, %43, %29, %20, %17, %15, %10
  %50 = load i32, ptr %2, align 4
  ret i32 %50
}

; Function Attrs: nounwind uwtable
define internal i32 @pg_wc_tolower(i32 noundef %0) #0 {
  %2 = alloca i32, align 4
  %3 = alloca i32, align 4
  %4 = alloca i32, align 4
  %5 = alloca i32, align 4
  store i32 %0, ptr %3, align 4
  %6 = load i32, ptr @pg_regex_strategy, align 4
  switch i32 %6, label %48 [
    i32 0, label %7
    i32 1, label %17
    i32 2, label %20
    i32 3, label %26
    i32 4, label %45
  ]

7:                                                ; preds = %1
  %8 = load i32, ptr %3, align 4
  %9 = icmp ule i32 %8, 127
  br i1 %9, label %10, label %15

10:                                               ; preds = %7
  %11 = load i32, ptr %3, align 4
  %12 = trunc i32 %11 to i8
  %13 = call zeroext i8 @pg_ascii_tolower(i8 noundef zeroext %12)
  %14 = zext i8 %13 to i32
  store i32 %14, ptr %2, align 4
  br label %49

15:                                               ; preds = %7
  %16 = load i32, ptr %3, align 4
  store i32 %16, ptr %2, align 4
  br label %49

17:                                               ; preds = %1
  %18 = load i32, ptr %3, align 4
  %19 = call i32 @unicode_lowercase_simple(i32 noundef %18)
  store i32 %19, ptr %2, align 4
  br label %49

20:                                               ; preds = %1
  %21 = load i32, ptr %3, align 4
  %22 = load ptr, ptr @pg_regex_locale, align 8
  %23 = getelementptr inbounds nuw %struct.pg_locale_struct, ptr %22, i32 0, i32 6
  %24 = load ptr, ptr %23, align 8
  %25 = call i32 @towlower_l(i32 noundef %21, ptr noundef %24) #12
  store i32 %25, ptr %2, align 4
  br label %49

26:                                               ; preds = %1
  %27 = load i32, ptr %3, align 4
  %28 = icmp ule i32 %27, 255
  br i1 %28, label %29, label %43

29:                                               ; preds = %26
  call void @llvm.lifetime.start.p0(i64 4, ptr %4) #12
  %30 = load ptr, ptr @pg_regex_locale, align 8
  %31 = getelementptr inbounds nuw %struct.pg_locale_struct, ptr %30, i32 0, i32 6
  %32 = load ptr, ptr %31, align 8
  %33 = getelementptr inbounds nuw %struct.__locale_struct, ptr %32, i32 0, i32 2
  %34 = load ptr, ptr %33, align 8
  %35 = load i32, ptr %3, align 4
  %36 = trunc i32 %35 to i8
  %37 = zext i8 %36 to i32
  %38 = sext i32 %37 to i64
  %39 = getelementptr inbounds i32, ptr %34, i64 %38
  %40 = load i32, ptr %39, align 4
  store i32 %40, ptr %4, align 4
  %41 = load i32, ptr %4, align 4
  store i32 %41, ptr %5, align 4
  call void @llvm.lifetime.end.p0(i64 4, ptr %4) #12
  %42 = load i32, ptr %5, align 4
  store i32 %42, ptr %2, align 4
  br label %49

43:                                               ; preds = %26
  %44 = load i32, ptr %3, align 4
  store i32 %44, ptr %2, align 4
  br label %49

45:                                               ; preds = %1
  %46 = load i32, ptr %3, align 4
  %47 = call i32 @u_tolower_70(i32 noundef %46)
  store i32 %47, ptr %2, align 4
  br label %49

48:                                               ; preds = %1
  store i32 0, ptr %2, align 4
  br label %49

49:                                               ; preds = %48, %45, %43, %29, %20, %17, %15, %10
  %50 = load i32, ptr %2, align 4
  ret i32 %50
}

; Function Attrs: nounwind uwtable
define internal ptr @allcases(ptr noundef %0, i32 noundef %1) #0 {
  %3 = alloca ptr, align 8
  %4 = alloca i32, align 4
  %5 = alloca ptr, align 8
  %6 = alloca i32, align 4
  %7 = alloca i32, align 4
  store ptr %0, ptr %3, align 8
  store i32 %1, ptr %4, align 4
  call void @llvm.lifetime.start.p0(i64 8, ptr %5) #12
  call void @llvm.lifetime.start.p0(i64 4, ptr %6) #12
  call void @llvm.lifetime.start.p0(i64 4, ptr %7) #12
  %8 = load i32, ptr %4, align 4
  %9 = call i32 @pg_wc_tolower(i32 noundef %8)
  store i32 %9, ptr %6, align 4
  %10 = load i32, ptr %4, align 4
  %11 = call i32 @pg_wc_toupper(i32 noundef %10)
  store i32 %11, ptr %7, align 4
  %12 = load ptr, ptr %3, align 8
  %13 = call ptr @getcvec(ptr noundef %12, i32 noundef 2, i32 noundef 0)
  store ptr %13, ptr %5, align 8
  %14 = load ptr, ptr %5, align 8
  %15 = load i32, ptr %6, align 4
  call void @addchr(ptr noundef %14, i32 noundef %15)
  %16 = load i32, ptr %6, align 4
  %17 = load i32, ptr %7, align 4
  %18 = icmp ne i32 %16, %17
  br i1 %18, label %19, label %22

19:                                               ; preds = %2
  %20 = load ptr, ptr %5, align 8
  %21 = load i32, ptr %7, align 4
  call void @addchr(ptr noundef %20, i32 noundef %21)
  br label %22

22:                                               ; preds = %19, %2
  %23 = load ptr, ptr %5, align 8
  call void @llvm.lifetime.end.p0(i64 4, ptr %7) #12
  call void @llvm.lifetime.end.p0(i64 4, ptr %6) #12
  call void @llvm.lifetime.end.p0(i64 8, ptr %5) #12
  ret ptr %23
}