; Function Attrs: nounwind uwtable
define internal fastcc noundef ptr @allcases(ptr noundef nonnull captures(none) %0, i32 noundef %1) unnamed_addr #0 {
  %3 = load i32, ptr @pg_regex_strategy, align 4
  switch i32 %3, label %default.unreachable.i [
    i32 0, label %4
    i32 1, label %10
    i32 2, label %12
    i32 3, label %17
    i32 4, label %28
  ]

4:                                                ; preds = %2
  %5 = icmp ult i32 %1, 128
  br i1 %5, label %6, label %pg_wc_toupper.exit

6:                                                ; preds = %4
  %7 = trunc nuw nsw i32 %1 to i8
  %8 = tail call zeroext i8 @pg_ascii_tolower(i8 noundef zeroext %7) #20
  %9 = zext i8 %8 to i32
  br label %pg_wc_tolower.exit

10:                                               ; preds = %2
  %11 = tail call i32 @unicode_lowercase_simple(i32 noundef %1) #20
  br label %pg_wc_tolower.exit

12:                                               ; preds = %2
  %13 = load ptr, ptr @pg_regex_locale, align 8
  %14 = getelementptr inbounds nuw i8, ptr %13, i64 16
  %15 = load ptr, ptr %14, align 8
  %16 = tail call i32 @towlower_l(i32 noundef %1, ptr noundef %15) #20
  br label %pg_wc_tolower.exit

17:                                               ; preds = %2
  %18 = icmp ult i32 %1, 256
  br i1 %18, label %19, label %pg_wc_toupper.exit

19:                                               ; preds = %17
  %20 = load ptr, ptr @pg_regex_locale, align 8
  %21 = getelementptr inbounds nuw i8, ptr %20, i64 16
  %22 = load ptr, ptr %21, align 8
  %23 = getelementptr inbounds nuw i8, ptr %22, i64 112
  %24 = load ptr, ptr %23, align 8
  %25 = zext nneg i32 %1 to i64
  %26 = getelementptr inbounds nuw i32, ptr %24, i64 %25
  %27 = load i32, ptr %26, align 4
  br label %pg_wc_tolower.exit

28:                                               ; preds = %2
  %29 = tail call i32 @u_tolower_70(i32 noundef %1) #20
  br label %pg_wc_tolower.exit

default.unreachable.i:                            ; preds = %2
  unreachable

pg_wc_tolower.exit:                               ; preds = %6, %10, %12, %19, %28
  %.0.i.ph = phi i32 [ %9, %6 ], [ %11, %10 ], [ %16, %12 ], [ %27, %19 ], [ %29, %28 ]
  %.pr = load i32, ptr @pg_regex_strategy, align 4
  switch i32 %.pr, label %default.unreachable.i10 [
    i32 0, label %30
    i32 1, label %36
    i32 2, label %38
    i32 3, label %43
    i32 4, label %54
  ]

30:                                               ; preds = %pg_wc_tolower.exit
  %31 = icmp ult i32 %1, 128
  br i1 %31, label %32, label %pg_wc_toupper.exit

32:                                               ; preds = %30
  %33 = trunc nuw nsw i32 %1 to i8
  %34 = tail call zeroext i8 @pg_ascii_toupper(i8 noundef zeroext %33) #20
  %35 = zext i8 %34 to i32
  br label %pg_wc_toupper.exit

36:                                               ; preds = %pg_wc_tolower.exit
  %37 = tail call i32 @unicode_uppercase_simple(i32 noundef %1) #20
  br label %pg_wc_toupper.exit

38:                                               ; preds = %pg_wc_tolower.exit
  %39 = load ptr, ptr @pg_regex_locale, align 8
  %40 = getelementptr inbounds nuw i8, ptr %39, i64 16
  %41 = load ptr, ptr %40, align 8
  %42 = tail call i32 @towupper_l(i32 noundef %1, ptr noundef %41) #20
  br label %pg_wc_toupper.exit

43:                                               ; preds = %pg_wc_tolower.exit
  %44 = icmp ult i32 %1, 256
  br i1 %44, label %45, label %pg_wc_toupper.exit

45:                                               ; preds = %43
  %46 = load ptr, ptr @pg_regex_locale, align 8
  %47 = getelementptr inbounds nuw i8, ptr %46, i64 16
  %48 = load ptr, ptr %47, align 8
  %49 = getelementptr inbounds nuw i8, ptr %48, i64 120
  %50 = load ptr, ptr %49, align 8
  %51 = zext nneg i32 %1 to i64
  %52 = getelementptr inbounds nuw i32, ptr %50, i64 %51
  %53 = load i32, ptr %52, align 4
  br label %pg_wc_toupper.exit

54:                                               ; preds = %pg_wc_tolower.exit
  %55 = tail call i32 @u_toupper_70(i32 noundef %1) #20
  br label %pg_wc_toupper.exit

default.unreachable.i10:                          ; preds = %pg_wc_tolower.exit
  unreachable

pg_wc_toupper.exit:                               ; preds = %17, %4, %30, %32, %36, %38, %43, %45, %54
  %.0.i13 = phi i32 [ %.0.i.ph, %54 ], [ %.0.i.ph, %45 ], [ %.0.i.ph, %38 ], [ %.0.i.ph, %36 ], [ %.0.i.ph, %32 ], [ %.0.i.ph, %30 ], [ %.0.i.ph, %43 ], [ %1, %4 ], [ %1, %17 ]
  %.0.i9 = phi i32 [ %55, %54 ], [ %53, %45 ], [ %42, %38 ], [ %37, %36 ], [ %35, %32 ], [ %1, %30 ], [ %1, %43 ], [ %1, %4 ], [ %1, %17 ]
  %56 = getelementptr inbounds nuw i8, ptr %0, i64 216
  %57 = load ptr, ptr %56, align 8
  %.not.i = icmp eq ptr %57, null
  br i1 %.not.i, label %68, label %58

58:                                               ; preds = %pg_wc_toupper.exit
  %59 = getelementptr inbounds nuw i8, ptr %57, i64 4
  %60 = load i32, ptr %59, align 4
  %.not20.i = icmp slt i32 %60, 2
  br i1 %.not20.i, label %67, label %61

61:                                               ; preds = %58
  %62 = getelementptr inbounds nuw i8, ptr %57, i64 20
  %63 = load i32, ptr %62, align 4
  %.not21.i = icmp slt i32 %63, 0
  br i1 %.not21.i, label %67, label %64

64:                                               ; preds = %61
  store i32 0, ptr %57, align 8
  %65 = getelementptr inbounds nuw i8, ptr %57, i64 16
  store i32 0, ptr %65, align 8
  %66 = getelementptr inbounds nuw i8, ptr %57, i64 32
  store i32 -1, ptr %66, align 8
  br label %getcvec.exit

67:                                               ; preds = %61, %58
  tail call void @pfree(ptr noundef nonnull %57) #20
  br label %68

68:                                               ; preds = %67, %pg_wc_toupper.exit
  %69 = tail call ptr @palloc_extended(i64 noundef 48, i32 noundef 2) #20
  %70 = icmp eq ptr %69, null
  br i1 %70, label %79, label %newcvec.exit.i

newcvec.exit.i:                                   ; preds = %68
  %71 = getelementptr inbounds nuw i8, ptr %69, i64 4
  store i32 2, ptr %71, align 4
  %72 = getelementptr inbounds nuw i8, ptr %69, i64 40
  %73 = getelementptr inbounds nuw i8, ptr %69, i64 8
  store ptr %72, ptr %73, align 8
  %74 = getelementptr inbounds nuw i8, ptr %69, i64 48
  %75 = getelementptr inbounds nuw i8, ptr %69, i64 24
  store ptr %74, ptr %75, align 8
  %76 = getelementptr inbounds nuw i8, ptr %69, i64 20
  store i32 0, ptr %76, align 4
  store i32 0, ptr %69, align 8
  %77 = getelementptr inbounds nuw i8, ptr %69, i64 16
  store i32 0, ptr %77, align 8
  %78 = getelementptr inbounds nuw i8, ptr %69, i64 32
  store i32 -1, ptr %78, align 8
  store ptr %69, ptr %56, align 8
  br label %getcvec.exit

79:                                               ; preds = %68
  store ptr null, ptr %56, align 8
  %80 = getelementptr inbounds nuw i8, ptr %0, i64 36
  store i32 101, ptr %80, align 4
  %81 = getelementptr inbounds nuw i8, ptr %0, i64 24
  %82 = load i32, ptr %81, align 8
  %.not23.i = icmp eq i32 %82, 0
  %spec.select.i = select i1 %.not23.i, i32 12, i32 %82
  store i32 %spec.select.i, ptr %81, align 8
  br label %getcvec.exit

getcvec.exit:                                     ; preds = %64, %newcvec.exit.i, %79
  %.0.i11 = phi ptr [ %57, %64 ], [ %69, %newcvec.exit.i ], [ null, %79 ]
  %83 = getelementptr inbounds nuw i8, ptr %.0.i11, i64 8
  %84 = load ptr, ptr %83, align 8
  %85 = load i32, ptr %.0.i11, align 8
  %86 = add i32 %85, 1
  store i32 %86, ptr %.0.i11, align 8
  %87 = sext i32 %85 to i64
  %88 = getelementptr inbounds i32, ptr %84, i64 %87
  store i32 %.0.i13, ptr %88, align 4
  %.not = icmp eq i32 %.0.i13, %.0.i9
  br i1 %.not, label %95, label %89

89:                                               ; preds = %getcvec.exit
  %90 = load ptr, ptr %83, align 8
  %91 = load i32, ptr %.0.i11, align 8
  %92 = add i32 %91, 1
  store i32 %92, ptr %.0.i11, align 8
  %93 = sext i32 %91 to i64
  %94 = getelementptr inbounds i32, ptr %90, i64 %93
  store i32 %.0.i9, ptr %94, align 4
  br label %95

95:                                               ; preds = %89, %getcvec.exit
  ret ptr %.0.i11
}